; Function Attrs: mustprogress uwtable
define dso_local void @_ZN16cmStateDirectory29AppendIncludeDirectoriesEntryERK2BTINSt7__cxx1112basic_stringIcSt11char_traitsIcESaIcEEEE(ptr noundef nonnull readonly align 8 captures(none) dereferenceable(40) %0, ptr noundef nonnull align 8 dereferenceable(48) %1) local_unnamed_addr #6 align 2 {
  %3 = getelementptr inbounds nuw i8, ptr %1, i64 8
  %4 = load i64, ptr %3, align 8, !tbaa !22
  %5 = icmp eq i64 %4, 0
  br i1 %5, label %_Z11AppendEntryISt6vectorI2BTINSt7__cxx1112basic_stringIcSt11char_traitsIcESaIcEEEESaIS8_EEmEvRT_RT0_RKS8_.exit, label %6

6:                                                ; preds = %2
  %7 = getelementptr inbounds nuw i8, ptr %0, i64 24
  %8 = load ptr, ptr %7, align 8, !tbaa !29
  %9 = load ptr, ptr %8, align 8, !tbaa !32
  %10 = getelementptr inbounds nuw i8, ptr %0, i64 32
  %11 = load i64, ptr %10, align 8, !tbaa !31
  %12 = getelementptr %"struct.cmStateDetail::SnapshotDataType", ptr %9, i64 %11
  %13 = getelementptr i8, ptr %12, i64 -40
  %14 = load ptr, ptr %0, align 8, !tbaa !4
  %15 = load ptr, ptr %14, align 8, !tbaa !12
  %16 = getelementptr inbounds nuw i8, ptr %0, i64 8
  %17 = load i64, ptr %16, align 8, !tbaa !11
  %18 = getelementptr %"struct.cmStateDetail::BuildsystemDirectoryStateType", ptr %15, i64 %17
  %19 = getelementptr i8, ptr %18, i64 -280
  tail call void @_ZNSt6vectorI2BTINSt7__cxx1112basic_stringIcSt11char_traitsIcESaIcEEEESaIS7_EE9push_backERKS7_(ptr noundef nonnull align 8 dereferenceable(24) %19, ptr noundef nonnull align 8 dereferenceable(48) %1)
  %20 = getelementptr i8, ptr %18, i64 -272
  %21 = load ptr, ptr %20, align 8, !tbaa !53
  %22 = load ptr, ptr %19, align 8, !tbaa !55
  %23 = ptrtoint ptr %21 to i64
  %24 = ptrtoint ptr %22 to i64
  %25 = sub i64 %23, %24
  %26 = sdiv exact i64 %25, 48
  store i64 %26, ptr %13, align 8, !tbaa !18
  br label %_Z11AppendEntryISt6vectorI2BTINSt7__cxx1112basic_stringIcSt11char_traitsIcESaIcEEEESaIS8_EEmEvRT_RT0_RKS8_.exit

_Z11AppendEntryISt6vectorI2BTINSt7__cxx1112basic_stringIcSt11char_traitsIcESaIcEEEESaIS8_EEmEvRT_RT0_RKS8_.exit: ; preds = %2, %6
  ret void
}